target datalayout = "e-m:e-p270:32:32-p271:32:32-p272:64:64-i64:64-i128:128-f80:128-n8:16:32:64-S128"
target triple = "x86_64-pc-linux-gnu"

@.str = private unnamed_addr constant [9 x i8] c"SHAKE256\00", align 1

; Function Attrs: nounwind uwtable
define internal i32 @oneshot_hash(ptr noundef %0, ptr noundef %1, i64 noundef %2, ptr noundef %3, i64 noundef %4, ptr noundef %5) #0 {
  %7 = alloca i32, align 4
  %8 = alloca ptr, align 8
  %9 = alloca ptr, align 8
  %10 = alloca i64, align 8
  %11 = alloca ptr, align 8
  %12 = alloca i64, align 8
  %13 = alloca ptr, align 8
  %14 = alloca ptr, align 8
  %15 = alloca ptr, align 8
  %16 = alloca i32, align 4
  %17 = alloca i32, align 4
  store ptr %0, ptr %8, align 8, !tbaa !3
  store ptr %1, ptr %9, align 8, !tbaa !8
  store i64 %2, ptr %10, align 8, !tbaa !10
  store ptr %3, ptr %11, align 8, !tbaa !8
  store i64 %4, ptr %12, align 8, !tbaa !10
  store ptr %5, ptr %13, align 8, !tbaa !8
  call void @llvm.lifetime.start.p0(i64 8, ptr %14) #6
  %18 = call ptr @EVP_MD_CTX_new()
  store ptr %18, ptr %14, align 8, !tbaa !12
  call void @llvm.lifetime.start.p0(i64 8, ptr %15) #6
  store ptr null, ptr %15, align 8, !tbaa !14
  call void @llvm.lifetime.start.p0(i64 4, ptr %16) #6
  store i32 0, ptr %16, align 4, !tbaa !16
  %19 = load ptr, ptr %14, align 8, !tbaa !12
  %20 = icmp eq ptr %19, null
  br i1 %20, label %21, label %22

21:                                               ; preds = %6
  store i32 0, ptr %7, align 4
  store i32 1, ptr %17, align 4
  br label %52

22:                                               ; preds = %6
  %23 = load ptr, ptr %8, align 8, !tbaa !3
  %24 = load ptr, ptr %13, align 8, !tbaa !8
  %25 = call ptr @EVP_MD_fetch(ptr noundef %23, ptr noundef @.str, ptr noundef %24)
  store ptr %25, ptr %15, align 8, !tbaa !14
  %26 = load ptr, ptr %15, align 8, !tbaa !14
  %27 = icmp eq ptr %26, null
  br i1 %27, label %28, label %29

28:                                               ; preds = %22
  br label %48

29:                                               ; preds = %22
  %30 = load ptr, ptr %14, align 8, !tbaa !12
  %31 = load ptr, ptr %15, align 8, !tbaa !14
  %32 = call i32 @EVP_DigestInit_ex(ptr noundef %30, ptr noundef %31, ptr noundef null)
  %33 = icmp ne i32 %32, 0
  br i1 %33, label %34, label %46

34:                                               ; preds = %29
  %35 = load ptr, ptr %14, align 8, !tbaa !12
  %36 = load ptr, ptr %11, align 8, !tbaa !8
  %37 = load i64, ptr %12, align 8, !tbaa !10
  %38 = call i32 @EVP_DigestUpdate(ptr noundef %35, ptr noundef %36, i64 noundef %37)
  %39 = icmp ne i32 %38, 0
  br i1 %39, label %40, label %46

40:                                               ; preds = %34
  %41 = load ptr, ptr %14, align 8, !tbaa !12
  %42 = load ptr, ptr %9, align 8, !tbaa !8
  %43 = load i64, ptr %10, align 8, !tbaa !10
  %44 = call i32 @EVP_DigestFinalXOF(ptr noundef %41, ptr noundef %42, i64 noundef %43)
  %45 = icmp ne i32 %44, 0
  br i1 %45, label %47, label %46

46:                                               ; preds = %40, %34, %29
  br label %48

47:                                               ; preds = %40
  store i32 -1, ptr %16, align 4, !tbaa !16
  br label %48

48:                                               ; preds = %47, %46, %28
  %49 = load ptr, ptr %14, align 8, !tbaa !12
  call void @EVP_MD_CTX_free(ptr noundef %49)
  %50 = load ptr, ptr %15, align 8, !tbaa !14
  call void @EVP_MD_free(ptr noundef %50)
  %51 = load i32, ptr %16, align 4, !tbaa !16
  store i32 %51, ptr %7, align 4
  store i32 1, ptr %17, align 4
  br label %52

52:                                               ; preds = %48, %21
  call void @llvm.lifetime.end.p0(i64 4, ptr %16) #6
  call void @llvm.lifetime.end.p0(i64 8, ptr %15) #6
  call void @llvm.lifetime.end.p0(i64 8, ptr %14) #6
  %53 = load i32, ptr %7, align 4
  ret i32 %53
}