; Function Attrs: nounwind uwtable
define internal fastcc range(i32 -1, 1) i32 @oneshot_hash(ptr noundef %0, ptr noundef %1, i64 noundef range(i64 56, 115) %2, ptr noundef %3, ptr noundef %4) unnamed_addr #0 {
  %6 = tail call ptr @EVP_MD_CTX_new() #5
  %7 = icmp eq ptr %6, null
  br i1 %7, label %18, label %8

8:                                                ; preds = %5
  %9 = tail call ptr @EVP_MD_fetch(ptr noundef %0, ptr noundef nonnull @.str, ptr noundef %4) #5
  %10 = icmp eq ptr %9, null
  br i1 %10, label %17, label %11

11:                                               ; preds = %8
  %12 = tail call i32 @EVP_DigestInit_ex(ptr noundef nonnull %6, ptr noundef nonnull %9, ptr noundef null) #5
  %.not = icmp eq i32 %12, 0
  br i1 %.not, label %17, label %13

13:                                               ; preds = %11
  %14 = tail call i32 @EVP_DigestUpdate(ptr noundef nonnull %6, ptr noundef %3, i64 noundef 57) #5
  %.not18 = icmp eq i32 %14, 0
  br i1 %.not18, label %17, label %15

15:                                               ; preds = %13
  %16 = tail call i32 @EVP_DigestFinalXOF(ptr noundef nonnull %6, ptr noundef %1, i64 noundef %2) #5
  %.not19 = icmp ne i32 %16, 0
  %spec.select = sext i1 %.not19 to i32
  br label %17

17:                                               ; preds = %15, %11, %13, %8
  %.0 = phi i32 [ 0, %8 ], [ 0, %13 ], [ 0, %11 ], [ %spec.select, %15 ]
  tail call void @EVP_MD_CTX_free(ptr noundef nonnull %6) #5
  tail call void @EVP_MD_free(ptr noundef %9) #5
  br label %18

18:                                               ; preds = %5, %17
  %.015 = phi i32 [ %.0, %17 ], [ 0, %5 ]
  ret i32 %.015
}